; Function Attrs: nofree norecurse nosync nounwind memory(argmem: readwrite) uwtable
define internal void @blend_interpolate_10bit(ptr noundef readonly captures(none) %0, i64 noundef %1, ptr noundef readonly captures(none) %2, i64 noundef %3, ptr noundef writeonly captures(none) %4, i64 noundef %5, i64 noundef %6, i64 noundef %7, ptr noundef readonly captures(none) %8, ptr readnone captures(none) %9) #6 {
  %11 = getelementptr inbounds nuw i8, ptr %8, i64 8
  %12 = load double, ptr %11, align 8, !tbaa !70
  %13 = fptrunc nsz double %12 to float
  %14 = lshr i64 %5, 1
  %15 = lshr i64 %1, 1
  %16 = lshr i64 %3, 1
  %17 = icmp sgt i64 %7, 0
  %18 = icmp sgt i64 %6, 0
  %or.cond = and i1 %17, %18
  br i1 %or.cond, label %.preheader.us, label %._crit_edge39

.preheader.us:                                    ; preds = %10, %._crit_edge.us
  %indvars.iv43 = phi i64 [ %indvars.iv.next44, %._crit_edge.us ], [ 0, %10 ]
  %.03037.us = phi ptr [ %46, %._crit_edge.us ], [ %4, %10 ]
  %.03136.us = phi ptr [ %48, %._crit_edge.us ], [ %2, %10 ]
  %.03235.us = phi ptr [ %47, %._crit_edge.us ], [ %0, %10 ]
  br label %19

19:                                               ; preds = %.preheader.us, %19
  %indvars.iv = phi i64 [ 0, %.preheader.us ], [ %indvars.iv.next, %19 ]
  %20 = getelementptr inbounds nuw i16, ptr %.03235.us, i64 %indvars.iv
  %21 = load i16, ptr %20, align 2, !tbaa !85
  %22 = uitofp i16 %21 to float
  %23 = uitofp i16 %21 to double
  %24 = fmul nsz double %23, 0x400921FB54442D18
  %25 = fdiv nsz double %24, 1.023000e+03
  %26 = fptrunc nsz double %25 to float
  %27 = tail call nsz float @llvm.cos.f32(float %26)
  %28 = fsub nsz float 2.000000e+00, %27
  %29 = getelementptr inbounds nuw i16, ptr %.03136.us, i64 %indvars.iv
  %30 = load i16, ptr %29, align 2, !tbaa !85
  %31 = uitofp i16 %30 to double
  %32 = fmul nsz double %31, 0x400921FB54442D18
  %33 = fdiv nsz double %32, 1.023000e+03
  %34 = fptrunc nsz double %33 to float
  %35 = tail call nsz float @llvm.cos.f32(float %34)
  %36 = fsub nsz float %28, %35
  %37 = fmul nsz float %36, 1.023000e+03
  %38 = fmul nsz float %37, 2.500000e-01
  %39 = tail call i64 @llvm.lrint.i64.f32(float %38)
  %40 = zext i16 %21 to i64
  %41 = sub nsw i64 %39, %40
  %42 = sitofp i64 %41 to float
  %43 = tail call nsz float @llvm.fmuladd.f32(float %42, float %13, float %22)
  %44 = fptoui float %43 to i16
  %45 = getelementptr inbounds nuw i16, ptr %.03037.us, i64 %indvars.iv
  store i16 %44, ptr %45, align 2, !tbaa !85
  %indvars.iv.next = add nuw nsw i64 %indvars.iv, 1
  %exitcond.not = icmp eq i64 %indvars.iv.next, %6
  br i1 %exitcond.not, label %._crit_edge.us, label %19, !llvm.loop !326

._crit_edge.us:                                   ; preds = %19
  %46 = getelementptr inbounds nuw i16, ptr %.03037.us, i64 %14
  %47 = getelementptr inbounds nuw i16, ptr %.03235.us, i64 %15
  %48 = getelementptr inbounds nuw i16, ptr %.03136.us, i64 %16
  %indvars.iv.next44 = add nuw nsw i64 %indvars.iv43, 1
  %exitcond46.not = icmp eq i64 %indvars.iv.next44, %7
  br i1 %exitcond46.not, label %._crit_edge39, label %.preheader.us, !llvm.loop !327

._crit_edge39:                                    ; preds = %._crit_edge.us, %10
  ret void
}